(Vpyui-gen
p1
I0
(lp2
(ipyuiGenerator_app.data
ItemData
p3
(dp4
S'outFile'
p5
V/home/nyko/python/pyui-generator/pyuiGenerator_app/pyui/dialogAddMulti.py
p6
sS'name'
p7
VdialogAddMulti
p8
sS'isResource'
p9
I00
sS'inFile'
p10
V/home/nyko/python/pyui-generator/pyuiGenerator_app/ui/dialogAddMulti.ui
p11
sba(ipyuiGenerator_app.data
ItemData
p12
(dp13
g5
V/home/nyko/python/pyui-generator/pyuiGenerator_app/pyui/dialogNewProject.py
p14
sg7
VdialogNewProject
p15
sg9
I00
sg10
V/home/nyko/python/pyui-generator/pyuiGenerator_app/ui/dialogNewProject.ui
p16
sba(ipyuiGenerator_app.data
ItemData
p17
(dp18
g5
V/home/nyko/python/pyui-generator/pyuiGenerator_app/pyui/itemWidget.py
p19
sg7
VitemWidget
p20
sg9
I00
sg10
V/home/nyko/python/pyui-generator/pyuiGenerator_app/ui/itemWidget.ui
p21
sba(ipyuiGenerator_app.data
ItemData
p22
(dp23
g5
V/home/nyko/python/pyui-generator/pyuiGenerator_app/pyui/mainWindow.py
p24
sg7
VmainWindow
p25
sg9
I00
sg10
V/home/nyko/python/pyui-generator/pyuiGenerator_app/ui/mainWindow.ui
p26
sba(ipyuiGenerator_app.data
ItemData
p27
(dp28
g5
V/home/nyko/python/pyui-generator/pyuiGenerator_app/pyui/resource_rc.py
p29
sg7
Vresource
p30
sg9
I01
sg10
V/home/nyko/python/pyui-generator/pyuiGenerator_app/ui/resource.qrc
p31
sbaV/home/nyko/python/pyui-generator/pyui-gen.uig
p32
V/home/nyko/python/pyui-generator/pyuiGenerator_app/ui
p33
V/home/nyko/python/pyui-generator/pyuiGenerator_app/pyui
p34
t.