(lp1
(i__main__
Content
p2
(dp3
S'outFile'
p4
csip
_unpickle_type
p5
(S'PyQt4.QtCore'
p6
S'QString'
(V/home/nyko/python/uiGen/src/pyui/resource_rc.py
p7
ttRp8
sS'name'
p9
g5
(g6
S'QString'
(Vresource
p10
ttRp11
sS'isResource'
p12
I01
sS'inFile'
p13
g5
(g6
S'QString'
(V/home/nyko/python/lilyMidi/src/ui/resource.qrc
p14
ttRp15
sba(i__main__
Content
p16
(dp17
g4
g5
(g6
S'QString'
(V/home/nyko/python/uiGen/src/pyui/main.py
p18
ttRp19
sg9
g5
(g6
S'QString'
(Vmain
p20
ttRp21
sg12
I00
sg13
g5
(g6
S'QString'
(V/home/nyko/python/uiGen/src/ui/main.ui
p22
ttRp23
sba(i__main__
Content
p24
(dp25
g4
g5
(g6
S'QString'
(V/home/nyko/python/uiGen/src/pyui/resource_rc.py
p26
ttRp27
sg9
g5
(g6
S'QString'
(Vresource
p28
ttRp29
sg12
I01
sg13
g5
(g6
S'QString'
(V/home/nyko/python/lilyMidi/src/ui/resource.qrc
p30
ttRp31
sba(i__main__
Content
p32
(dp33
g4
g5
(g6
S'QString'
(V/home/nyko/python/lilyMidi/src/pyui/main.py
p34
ttRp35
sg9
g5
(g6
S'QString'
(Vmain
p36
ttRp37
sg12
I00
sg13
g5
(g6
S'QString'
(V/home/nyko/python/lilyMidi/src/ui/main.ui
p38
ttRp39
sba(i__main__
Content
p40
(dp41
S'outFile'
p42
g5
(g6
S'QString'
(V/home/nyko/python/lilyMidi/src/pyui/dialogGlyphChooser.py
p43
ttRp44
sS'name'
p45
g5
(g6
S'QString'
(VdialogGlyphChooser
p46
ttRp47
sS'isResource'
p48
I00
sS'inFile'
p49
g5
(g6
S'QString'
(V/home/nyko/python/lilyMidi/src/ui/dialogGlyphChooser.ui
p50
ttRp51
sba.